target datalayout = "e-m:e-p270:32:32-p271:32:32-p272:64:64-i64:64-i128:128-f80:128-n8:16:32:64-S128"
target triple = "x86_64-pc-linux-gnu"

%"class.sat::literal" = type { i32 }
%"class.std::_Function_base" = type { %"union.std::_Any_data", ptr }
%"union.std::_Any_data" = type { %"union.std::_Nocopy_types" }
%"union.std::_Nocopy_types" = type { { i64, i64 } }
%"class.sat::xor_finder" = type { ptr, i32, %class.vector, i32, %class.vector.0, %class.ptr_vector, %class.svector, %class.svector.3, %class.svector, %class.ptr_vector, %"class.std::function" }
%class.vector = type { ptr }
%class.vector.0 = type { ptr }
%class.svector.3 = type { %class.vector.4 }
%class.vector.4 = type { ptr }
%class.svector = type { %class.vector.2 }
%class.vector.2 = type { ptr }
%class.ptr_vector = type { %class.vector.1 }
%class.vector.1 = type { ptr }
%"class.std::function" = type { %"class.std::_Function_base", ptr }
%class.svector.20 = type { %class.vector.21 }
%class.vector.21 = type { ptr }
%class.approx_set_tpl = type { i32 }
%"class.sat::clause" = type { i32, i32, i32, %class.approx_set_tpl, i32, [0 x %"class.sat::literal"] }

; Function Attrs: inlinehint mustprogress nounwind uwtable
define linkonce_odr hidden noundef zeroext i1 @_ZNK3sat10xor_finder15get_combinationEj(ptr noundef nonnull align 8 dereferenceable(112) %0, i32 noundef %1) #8 comdat align 2 {
  %3 = alloca ptr, align 8
  %4 = alloca i32, align 4
  store ptr %0, ptr %3, align 8, !tbaa !3
  store i32 %1, ptr %4, align 4, !tbaa !30
  %5 = load ptr, ptr %3, align 8
  %6 = getelementptr inbounds nuw %"class.sat::xor_finder", ptr %5, i32 0, i32 3
  %7 = load i32, ptr %6, align 8, !tbaa !56
  %8 = load i32, ptr %4, align 4, !tbaa !30
  %9 = shl i32 1, %8
  %10 = and i32 %7, %9
  %11 = icmp ne i32 %10, 0
  ret i1 %11
}

; Function Attrs: mustprogress nounwind uwtable
define linkonce_odr hidden noundef nonnull align 1 dereferenceable(1) ptr @_ZN6vectorIbLb0EjEixEj(ptr noundef nonnull align 8 dereferenceable(8) %0, i32 noundef %1) #5 comdat align 2 {
  %3 = alloca ptr, align 8
  %4 = alloca i32, align 4
  store ptr %0, ptr %3, align 8, !tbaa !111
  store i32 %1, ptr %4, align 4, !tbaa !30
  %5 = load ptr, ptr %3, align 8
  %6 = getelementptr inbounds nuw %class.vector.21, ptr %5, i32 0, i32 0
  %7 = load ptr, ptr %6, align 8, !tbaa !113
  %8 = load i32, ptr %4, align 4, !tbaa !30
  %9 = zext i32 %8 to i64
  %10 = getelementptr inbounds nuw i8, ptr %7, i64 %9
  ret ptr %10
}

; Function Attrs: mustprogress nounwind uwtable
define linkonce_odr hidden noundef nonnull align 8 dereferenceable(8) ptr @_ZN6vectorI7svectorIbjELb1EjEixEj(ptr noundef nonnull align 8 dereferenceable(8) %0, i32 noundef %1) #5 comdat align 2 {
  %3 = alloca ptr, align 8
  %4 = alloca i32, align 4
  store ptr %0, ptr %3, align 8, !tbaa !108
  store i32 %1, ptr %4, align 4, !tbaa !30
  %5 = load ptr, ptr %3, align 8
  %6 = getelementptr inbounds nuw %class.vector.0, ptr %5, i32 0, i32 0
  %7 = load ptr, ptr %6, align 8, !tbaa !110
  %8 = load i32, ptr %4, align 4, !tbaa !30
  %9 = zext i32 %8 to i64
  %10 = getelementptr inbounds nuw %class.svector.20, ptr %7, i64 %9
  ret ptr %10
}

; Function Attrs: mustprogress nounwind uwtable
define linkonce_odr hidden noundef i32 @_ZNK3sat6clause4sizeEv(ptr noundef nonnull align 4 dereferenceable(20) %0) #5 comdat align 2 {
  %2 = alloca ptr, align 8
  store ptr %0, ptr %2, align 8, !tbaa !33
  %3 = load ptr, ptr %2, align 8
  %4 = getelementptr inbounds nuw %"class.sat::clause", ptr %3, i32 0, i32 1
  %5 = load i32, ptr %4, align 4, !tbaa !47
  ret i32 %5
}

; Function Attrs: mustprogress nounwind uwtable
define hidden void @_ZN3sat10xor_finder15set_combinationEj(ptr noundef nonnull align 8 dereferenceable(112) %0, i32 noundef %1) #5 align 2 {
  %3 = alloca ptr, align 8
  %4 = alloca i32, align 4
  store ptr %0, ptr %3, align 8, !tbaa !3
  store i32 %1, ptr %4, align 4, !tbaa !30
  %5 = load ptr, ptr %3, align 8
  %6 = load i32, ptr %4, align 4, !tbaa !30
  %7 = shl i32 1, %6
  %8 = getelementptr inbounds nuw %"class.sat::xor_finder", ptr %5, i32 0, i32 3
  %9 = load i32, ptr %8, align 8, !tbaa !56
  %10 = or i32 %9, %7
  store i32 %10, ptr %8, align 8, !tbaa !56
  ret void
}

; Function Attrs: mustprogress nounwind uwtable
define linkonce_odr hidden noundef nonnull align 4 dereferenceable(4) ptr @_ZN6vectorIjLb0EjEixEj(ptr noundef nonnull align 8 dereferenceable(8) %0, i32 noundef %1) #5 comdat align 2 {
  %3 = alloca ptr, align 8
  %4 = alloca i32, align 4
  store ptr %0, ptr %3, align 8, !tbaa !40
  store i32 %1, ptr %4, align 4, !tbaa !30
  %5 = load ptr, ptr %3, align 8
  %6 = getelementptr inbounds nuw %class.vector.2, ptr %5, i32 0, i32 0
  %7 = load ptr, ptr %6, align 8, !tbaa !43
  %8 = load i32, ptr %4, align 4, !tbaa !30
  %9 = zext i32 %8 to i64
  %10 = getelementptr inbounds nuw i32, ptr %7, i64 %9
  ret ptr %10
}

; Function Attrs: mustprogress nounwind uwtable
define linkonce_odr hidden noundef i32 @_ZNK6vectorIjLb0EjE4sizeEv(ptr noundef nonnull align 8 dereferenceable(8) %0) #5 comdat align 2 {
  %2 = alloca i32, align 4
  %3 = alloca ptr, align 8
  store ptr %0, ptr %3, align 8, !tbaa !40
  %4 = load ptr, ptr %3, align 8
  %5 = getelementptr inbounds nuw %class.vector.2, ptr %4, i32 0, i32 0
  %6 = load ptr, ptr %5, align 8, !tbaa !43
  %7 = icmp eq ptr %6, null
  br i1 %7, label %8, label %9

8:                                                ; preds = %1
  store i32 0, ptr %2, align 4
  br label %14

9:                                                ; preds = %1
  %10 = getelementptr inbounds nuw %class.vector.2, ptr %4, i32 0, i32 0
  %11 = load ptr, ptr %10, align 8, !tbaa !43
  %12 = getelementptr inbounds i32, ptr %11, i64 -1
  %13 = load i32, ptr %12, align 4, !tbaa !30
  store i32 %13, ptr %2, align 4
  br label %14

14:                                               ; preds = %9, %8
  %15 = load i32, ptr %2, align 4
  ret i32 %15
}

; Function Attrs: mustprogress uwtable
define hidden noundef zeroext i1 @_ZN3sat10xor_finder19update_combinationsERNS_6clauseEbj(ptr noundef nonnull align 8 dereferenceable(112) %0, ptr noundef nonnull align 4 dereferenceable(20) %1, i1 noundef zeroext %2, i32 noundef %3) #4 align 2 {
  %5 = alloca i1, align 1
  %6 = alloca ptr, align 8
  %7 = alloca ptr, align 8
  %8 = alloca i8, align 1
  %9 = alloca i32, align 4
  %10 = alloca i32, align 4
  %11 = alloca i32, align 4
  %12 = alloca i32, align 4
  %13 = alloca i32, align 4
  %14 = alloca i32, align 4
  %15 = alloca i32, align 4
  %16 = alloca i32, align 4
  store ptr %0, ptr %6, align 8, !tbaa !3
  store ptr %1, ptr %7, align 8, !tbaa !33
  %17 = zext i1 %2 to i8
  store i8 %17, ptr %8, align 1, !tbaa !50
  store i32 %3, ptr %9, align 4, !tbaa !30
  %18 = load ptr, ptr %6, align 8
  call void @llvm.lifetime.start.p0(i64 4, ptr %10) #3
  %19 = getelementptr inbounds nuw %"class.sat::xor_finder", ptr %18, i32 0, i32 8
  %20 = call noundef i32 @_ZNK6vectorIjLb0EjE4sizeEv(ptr noundef nonnull align 8 dereferenceable(8) %19)
  store i32 %20, ptr %10, align 4, !tbaa !30
  call void @llvm.lifetime.start.p0(i64 4, ptr %11) #3
  store i32 0, ptr %11, align 4, !tbaa !30
  br label %21

21:                                               ; preds = %59, %4
  %22 = load i32, ptr %11, align 4, !tbaa !30
  %23 = zext i32 %22 to i64
  %24 = load i32, ptr %10, align 4, !tbaa !30
  %25 = zext i32 %24 to i64
  %26 = shl i64 1, %25
  %27 = icmp ult i64 %23, %26
  br i1 %27, label %29, label %28

28:                                               ; preds = %21
  store i32 2, ptr %12, align 4
  call void @llvm.lifetime.end.p0(i64 4, ptr %11) #3
  br label %62

29:                                               ; preds = %21
  call void @llvm.lifetime.start.p0(i64 4, ptr %13) #3
  %30 = load i32, ptr %9, align 4, !tbaa !30
  store i32 %30, ptr %13, align 4, !tbaa !30
  call void @llvm.lifetime.start.p0(i64 4, ptr %14) #3
  store i32 0, ptr %14, align 4, !tbaa !30
  br label %31

31:                                               ; preds = %54, %29
  %32 = load i32, ptr %14, align 4, !tbaa !30
  %33 = load i32, ptr %10, align 4, !tbaa !30
  %34 = icmp ult i32 %32, %33
  br i1 %34, label %36, label %35

35:                                               ; preds = %31
  store i32 5, ptr %12, align 4
  call void @llvm.lifetime.end.p0(i64 4, ptr %14) #3
  br label %57

36:                                               ; preds = %31
  %37 = load i32, ptr %11, align 4, !tbaa !30
  %38 = load i32, ptr %14, align 4, !tbaa !30
  %39 = shl i32 1, %38
  %40 = and i32 %37, %39
  %41 = icmp ne i32 %40, 0
  br i1 %41, label %42, label %53

42:                                               ; preds = %36
  %43 = getelementptr inbounds nuw %"class.sat::xor_finder", ptr %18, i32 0, i32 8
  %44 = load i32, ptr %14, align 4, !tbaa !30
  %45 = call noundef nonnull align 4 dereferenceable(4) ptr @_ZN6vectorIjLb0EjEixEj(ptr noundef nonnull align 8 dereferenceable(8) %43, i32 noundef %44)
  %46 = load i32, ptr %45, align 4, !tbaa !30
  %47 = zext i32 %46 to i64
  %48 = shl i64 1, %47
  %49 = load i32, ptr %13, align 4, !tbaa !30
  %50 = zext i32 %49 to i64
  %51 = or i64 %50, %48
  %52 = trunc i64 %51 to i32
  store i32 %52, ptr %13, align 4, !tbaa !30
  br label %53

53:                                               ; preds = %42, %36
  br label %54

54:                                               ; preds = %53
  %55 = load i32, ptr %14, align 4, !tbaa !30
  %56 = add i32 %55, 1
  store i32 %56, ptr %14, align 4, !tbaa !30
  br label %31, !llvm.loop !105

57:                                               ; preds = %35
  %58 = load i32, ptr %13, align 4, !tbaa !30
  call void @_ZN3sat10xor_finder15set_combinationEj(ptr noundef nonnull align 8 dereferenceable(112) %18, i32 noundef %58)
  call void @llvm.lifetime.end.p0(i64 4, ptr %13) #3
  br label %59

59:                                               ; preds = %57
  %60 = load i32, ptr %11, align 4, !tbaa !30
  %61 = add i32 %60, 1
  store i32 %61, ptr %11, align 4, !tbaa !30
  br label %21, !llvm.loop !106

62:                                               ; preds = %28
  call void @llvm.lifetime.start.p0(i64 4, ptr %15) #3
  %63 = load ptr, ptr %7, align 8, !tbaa !33
  %64 = call noundef i32 @_ZNK3sat6clause4sizeEv(ptr noundef nonnull align 4 dereferenceable(20) %63)
  store i32 %64, ptr %15, align 4, !tbaa !30
  call void @llvm.lifetime.start.p0(i64 4, ptr %16) #3
  store i32 0, ptr %16, align 4, !tbaa !30
  br label %65

65:                                               ; preds = %91, %62
  %66 = load i32, ptr %16, align 4, !tbaa !30
  %67 = zext i32 %66 to i64
  %68 = load i32, ptr %15, align 4, !tbaa !30
  %69 = zext i32 %68 to i64
  %70 = shl i64 1, %69
  %71 = icmp ult i64 %67, %70
  br i1 %71, label %73, label %72

72:                                               ; preds = %65
  store i32 8, ptr %12, align 4
  br label %94

73:                                               ; preds = %65
  %74 = load i8, ptr %8, align 1, !tbaa !50, !range !54, !noundef !55
  %75 = trunc i8 %74 to i1
  %76 = zext i1 %75 to i32
  %77 = getelementptr inbounds nuw %"class.sat::xor_finder", ptr %18, i32 0, i32 4
  %78 = load i32, ptr %15, align 4, !tbaa !30
  %79 = call noundef nonnull align 8 dereferenceable(8) ptr @_ZN6vectorI7svectorIbjELb1EjEixEj(ptr noundef nonnull align 8 dereferenceable(8) %77, i32 noundef %78)
  %80 = load i32, ptr %16, align 4, !tbaa !30
  %81 = call noundef nonnull align 1 dereferenceable(1) ptr @_ZN6vectorIbLb0EjEixEj(ptr noundef nonnull align 8 dereferenceable(8) %79, i32 noundef %80)
  %82 = load i8, ptr %81, align 1, !tbaa !50, !range !54, !noundef !55
  %83 = trunc i8 %82 to i1
  %84 = zext i1 %83 to i32
  %85 = icmp eq i32 %76, %84
  br i1 %85, label %86, label %90

86:                                               ; preds = %73
  %87 = load i32, ptr %16, align 4, !tbaa !30
  %88 = call noundef zeroext i1 @_ZNK3sat10xor_finder15get_combinationEj(ptr noundef nonnull align 8 dereferenceable(112) %18, i32 noundef %87)
  br i1 %88, label %90, label %89

89:                                               ; preds = %86
  store i1 false, ptr %5, align 1
  store i32 1, ptr %12, align 4
  br label %94

90:                                               ; preds = %86, %73
  br label %91

91:                                               ; preds = %90
  %92 = load i32, ptr %16, align 4, !tbaa !30
  %93 = add i32 %92, 1
  store i32 %93, ptr %16, align 4, !tbaa !30
  br label %65, !llvm.loop !107

94:                                               ; preds = %89, %72
  call void @llvm.lifetime.end.p0(i64 4, ptr %16) #3
  %95 = load i32, ptr %12, align 4
  switch i32 %95, label %97 [
    i32 8, label %96
  ]

96:                                               ; preds = %94
  store i1 true, ptr %5, align 1
  store i32 1, ptr %12, align 4
  br label %97

97:                                               ; preds = %96, %94
  call void @llvm.lifetime.end.p0(i64 4, ptr %15) #3
  call void @llvm.lifetime.end.p0(i64 4, ptr %10) #3
  %98 = load i1, ptr %5, align 1
  ret i1 %98
}