; Function Attrs: mustprogress nofree norecurse nosync nounwind memory(read, argmem: readwrite, inaccessiblemem: none) uwtable
define hidden noundef zeroext i1 @_ZN3sat10xor_finder19update_combinationsERNS_6clauseEbj(ptr noundef nonnull align 8 captures(none) dereferenceable(112) %0, ptr noundef nonnull readonly align 4 captures(none) dereferenceable(20) %1, i1 noundef zeroext %2, i32 noundef %3) local_unnamed_addr #9 align 2 {
  %5 = getelementptr inbounds nuw i8, ptr %0, i64 64
  %6 = load ptr, ptr %5, align 8, !tbaa !32
  %7 = icmp eq ptr %6, null
  br i1 %7, label %_ZNK6vectorIjLb0EjE4sizeEv.exit.thread, label %_ZNK6vectorIjLb0EjE4sizeEv.exit

_ZNK6vectorIjLb0EjE4sizeEv.exit.thread:           ; preds = %4
  %8 = getelementptr inbounds nuw i8, ptr %0, i64 24
  %.promoted40 = load i32, ptr %8, align 8, !tbaa !60
  br label %_ZNK6vectorIjLb0EjE4sizeEv.exit.split

_ZNK6vectorIjLb0EjE4sizeEv.exit:                  ; preds = %4
  %9 = getelementptr inbounds i8, ptr %6, i64 -4
  %10 = load i32, ptr %9, align 4, !tbaa !10
  %11 = zext i32 %10 to i64
  %.not36 = icmp eq i32 %10, 0
  %12 = getelementptr inbounds nuw i8, ptr %0, i64 24
  %.promoted = load i32, ptr %12, align 8, !tbaa !60
  br i1 %.not36, label %_ZNK6vectorIjLb0EjE4sizeEv.exit.split, label %.preheader.us

.preheader.us:                                    ; preds = %_ZNK6vectorIjLb0EjE4sizeEv.exit, %._crit_edge.us
  %13 = phi i32 [ %27, %._crit_edge.us ], [ %.promoted, %_ZNK6vectorIjLb0EjE4sizeEv.exit ]
  %.02733.us = phi i32 [ %28, %._crit_edge.us ], [ 0, %_ZNK6vectorIjLb0EjE4sizeEv.exit ]
  br label %14

14:                                               ; preds = %.preheader.us, %25
  %indvars.iv = phi i64 [ 0, %.preheader.us ], [ %indvars.iv.next, %25 ]
  %.02431.us = phi i32 [ %3, %.preheader.us ], [ %.125.us, %25 ]
  %15 = trunc nuw i64 %indvars.iv to i32
  %16 = shl nuw i32 1, %15
  %17 = and i32 %16, %.02733.us
  %.not29.us = icmp eq i32 %17, 0
  br i1 %.not29.us, label %25, label %18

18:                                               ; preds = %14
  %19 = getelementptr inbounds nuw i32, ptr %6, i64 %indvars.iv
  %20 = load i32, ptr %19, align 4, !tbaa !10
  %21 = zext nneg i32 %20 to i64
  %22 = shl nuw i64 1, %21
  %23 = trunc i64 %22 to i32
  %24 = or i32 %.02431.us, %23
  br label %25

25:                                               ; preds = %18, %14
  %.125.us = phi i32 [ %24, %18 ], [ %.02431.us, %14 ]
  %indvars.iv.next = add nuw nsw i64 %indvars.iv, 1
  %exitcond.not = icmp eq i64 %indvars.iv.next, %11
  br i1 %exitcond.not, label %._crit_edge.us, label %14, !llvm.loop !74

._crit_edge.us:                                   ; preds = %25
  %26 = shl nuw i32 1, %.125.us
  %27 = or i32 %13, %26
  store i32 %27, ptr %12, align 8, !tbaa !60
  %28 = add i32 %.02733.us, 1
  %29 = zext i32 %28 to i64
  %.highbits.us = lshr i64 %29, %11
  %30 = icmp eq i64 %.highbits.us, 0
  br i1 %30, label %.preheader.us, label %.split.us, !llvm.loop !75

_ZNK6vectorIjLb0EjE4sizeEv.exit.split:            ; preds = %_ZNK6vectorIjLb0EjE4sizeEv.exit.thread, %_ZNK6vectorIjLb0EjE4sizeEv.exit
  %.promoted41 = phi i32 [ %.promoted40, %_ZNK6vectorIjLb0EjE4sizeEv.exit.thread ], [ %.promoted, %_ZNK6vectorIjLb0EjE4sizeEv.exit ]
  %31 = phi ptr [ %8, %_ZNK6vectorIjLb0EjE4sizeEv.exit.thread ], [ %12, %_ZNK6vectorIjLb0EjE4sizeEv.exit ]
  %32 = shl nuw i32 1, %3
  %33 = or i32 %.promoted41, %32
  store i32 %33, ptr %31, align 8, !tbaa !60
  br label %.split.us

.split.us:                                        ; preds = %._crit_edge.us, %_ZNK6vectorIjLb0EjE4sizeEv.exit.split
  %34 = phi i32 [ %33, %_ZNK6vectorIjLb0EjE4sizeEv.exit.split ], [ %27, %._crit_edge.us ]
  %35 = getelementptr inbounds nuw i8, ptr %1, i64 4
  %36 = load i32, ptr %35, align 4, !tbaa !38
  %37 = zext nneg i32 %36 to i64
  %38 = getelementptr inbounds nuw i8, ptr %0, i64 32
  %39 = load ptr, ptr %38, align 8, !tbaa !76
  %40 = getelementptr inbounds nuw %class.svector.20, ptr %39, i64 %37
  %41 = load ptr, ptr %40, align 8, !tbaa !77
  %42 = zext i1 %2 to i8
  br label %43

43:                                               ; preds = %.split.us, %51
  %44 = phi i64 [ 0, %.split.us ], [ %53, %51 ]
  %.034 = phi i32 [ 0, %.split.us ], [ %52, %51 ]
  %45 = getelementptr inbounds nuw i8, ptr %41, i64 %44
  %46 = load i8, ptr %45, align 1, !tbaa !80, !range !82, !noundef !83
  %47 = icmp eq i8 %46, %42
  br i1 %47, label %48, label %51

48:                                               ; preds = %43
  %49 = shl nuw i32 1, %.034
  %50 = and i32 %34, %49
  %.not30 = icmp eq i32 %50, 0
  br i1 %.not30, label %.critedge, label %51

51:                                               ; preds = %43, %48
  %52 = add i32 %.034, 1
  %53 = zext i32 %52 to i64
  %.highbits28 = lshr i64 %53, %37
  %.not.not = icmp eq i64 %.highbits28, 0
  br i1 %.not.not, label %43, label %.critedge, !llvm.loop !84

.critedge:                                        ; preds = %51, %48
  %.not.lcssa = phi i1 [ true, %51 ], [ false, %48 ]
  ret i1 %.not.lcssa
}